target datalayout = "e-m:e-p270:32:32-p271:32:32-p272:64:64-i64:64-i128:128-f80:128-n8:16:32:64-S128"
target triple = "x86_64-pc-linux-gnu"

%struct.reattach_tasks_response_msg = type { ptr, i32, i32, ptr, ptr, ptr }

; Function Attrs: nounwind uwtable
define dso_local void @slurm_free_reattach_tasks_response_msg(ptr noundef %0) #0 {
  %2 = alloca ptr, align 8
  %3 = alloca i32, align 4
  store ptr %0, ptr %2, align 8
  call void @llvm.lifetime.start.p0(i64 4, ptr %3) #11
  %4 = load ptr, ptr %2, align 8
  %5 = icmp ne ptr %4, null
  br i1 %5, label %6, label %38

6:                                                ; preds = %1
  %7 = load ptr, ptr %2, align 8
  %8 = getelementptr inbounds nuw %struct.reattach_tasks_response_msg, ptr %7, i32 0, i32 0
  call void @slurm_xfree(ptr noundef %8)
  %9 = load ptr, ptr %2, align 8
  %10 = getelementptr inbounds nuw %struct.reattach_tasks_response_msg, ptr %9, i32 0, i32 4
  call void @slurm_xfree(ptr noundef %10)
  %11 = load ptr, ptr %2, align 8
  %12 = getelementptr inbounds nuw %struct.reattach_tasks_response_msg, ptr %11, i32 0, i32 3
  call void @slurm_xfree(ptr noundef %12)
  %13 = load ptr, ptr %2, align 8
  %14 = getelementptr inbounds nuw %struct.reattach_tasks_response_msg, ptr %13, i32 0, i32 5
  %15 = load ptr, ptr %14, align 8
  %16 = icmp ne ptr %15, null
  br i1 %16, label %17, label %37

17:                                               ; preds = %6
  store i32 0, ptr %3, align 4
  br label %18

18:                                               ; preds = %31, %17
  %19 = load i32, ptr %3, align 4
  %20 = load ptr, ptr %2, align 8
  %21 = getelementptr inbounds nuw %struct.reattach_tasks_response_msg, ptr %20, i32 0, i32 2
  %22 = load i32, ptr %21, align 4
  %23 = icmp ult i32 %19, %22
  br i1 %23, label %24, label %34

24:                                               ; preds = %18
  %25 = load ptr, ptr %2, align 8
  %26 = getelementptr inbounds nuw %struct.reattach_tasks_response_msg, ptr %25, i32 0, i32 5
  %27 = load ptr, ptr %26, align 8
  %28 = load i32, ptr %3, align 4
  %29 = sext i32 %28 to i64
  %30 = getelementptr inbounds ptr, ptr %27, i64 %29
  call void @slurm_xfree(ptr noundef %30)
  br label %31

31:                                               ; preds = %24
  %32 = load i32, ptr %3, align 4
  %33 = add nsw i32 %32, 1
  store i32 %33, ptr %3, align 4
  br label %18, !llvm.loop !45

34:                                               ; preds = %18
  %35 = load ptr, ptr %2, align 8
  %36 = getelementptr inbounds nuw %struct.reattach_tasks_response_msg, ptr %35, i32 0, i32 5
  call void @slurm_xfree(ptr noundef %36)
  br label %37

37:                                               ; preds = %34, %6
  call void @slurm_xfree(ptr noundef %2)
  br label %38

38:                                               ; preds = %37, %1
  call void @llvm.lifetime.end.p0(i64 4, ptr %3) #11
  ret void
}