; Function Attrs: nounwind uwtable
define dso_local void @slurm_free_reattach_tasks_response_msg(ptr noundef %0) local_unnamed_addr #1 {
  %2 = alloca ptr, align 8
  store ptr %0, ptr %2, align 8
  %.not = icmp eq ptr %0, null
  br i1 %.not, label %16, label %3

3:                                                ; preds = %1
  tail call void @slurm_xfree(ptr noundef nonnull %0) #24
  %4 = getelementptr inbounds nuw i8, ptr %0, i64 24
  tail call void @slurm_xfree(ptr noundef nonnull %4) #24
  %5 = getelementptr inbounds nuw i8, ptr %0, i64 16
  tail call void @slurm_xfree(ptr noundef nonnull %5) #24
  %6 = getelementptr inbounds nuw i8, ptr %0, i64 32
  %7 = load ptr, ptr %6, align 8
  %.not4 = icmp eq ptr %7, null
  br i1 %.not4, label %15, label %.preheader

.preheader:                                       ; preds = %3
  %8 = getelementptr inbounds nuw i8, ptr %0, i64 12
  %9 = load i32, ptr %8, align 4
  %.not6 = icmp eq i32 %9, 0
  br i1 %.not6, label %._crit_edge, label %.lr.ph

.lr.ph:                                           ; preds = %.preheader, %.lr.ph
  %indvars.iv = phi i64 [ %indvars.iv.next, %.lr.ph ], [ 0, %.preheader ]
  %10 = load ptr, ptr %6, align 8
  %11 = getelementptr inbounds nuw ptr, ptr %10, i64 %indvars.iv
  tail call void @slurm_xfree(ptr noundef %11) #24
  %indvars.iv.next = add nuw nsw i64 %indvars.iv, 1
  %12 = load i32, ptr %8, align 4
  %13 = zext i32 %12 to i64
  %14 = icmp samesign ult i64 %indvars.iv.next, %13
  br i1 %14, label %.lr.ph, label %._crit_edge, !llvm.loop !46

._crit_edge:                                      ; preds = %.lr.ph, %.preheader
  tail call void @slurm_xfree(ptr noundef nonnull %6) #24
  br label %15

15:                                               ; preds = %._crit_edge, %3
  call void @slurm_xfree(ptr noundef nonnull %2) #24
  br label %16

16:                                               ; preds = %15, %1
  ret void
}